; Function Attrs: nounwind uwtable
define dso_local range(i32 -1, 1) i32 @acct_gather_energy_p_set_data(i32 noundef %0, ptr noundef %1) local_unnamed_addr #0 {
  %3 = alloca i64, align 8
  %4 = alloca [2 x %struct.acct_gather_profile_dataset_t], align 16
  switch i32 %0, label %60 [
    i32 2, label %62
    i32 3, label %5
    i32 8, label %59
  ]

5:                                                ; preds = %2
  %6 = load ptr, ptr @local_energy, align 8
  tail call fastcc void @_get_joules_task(ptr noundef %6)
  call void @llvm.lifetime.start.p0(i64 8, ptr nonnull %3) #11
  call void @llvm.lifetime.start.p0(i64 32, ptr nonnull %4) #11
  call void @llvm.memcpy.p0.p0.i64(ptr noundef nonnull align 16 dereferenceable(32) %4, ptr noundef nonnull align 16 dereferenceable(32) @__const._send_profile.dataset, i64 32, i1 false)
  %7 = load i32, ptr @_running_profile.profile_opt, align 4
  %8 = icmp eq i32 %7, 0
  br i1 %8, label %9, label %_running_profile.exit.i

9:                                                ; preds = %5
  %10 = tail call i32 @acct_gather_profile_g_get(i32 noundef 2, ptr noundef nonnull @_running_profile.profile_opt) #11
  %11 = load i32, ptr @_running_profile.profile_opt, align 4
  %12 = and i32 %11, 2
  %.not.i.i = icmp eq i32 %12, 0
  br i1 %.not.i.i, label %_running_profile.exit.i, label %_running_profile.exit.thread.i

_running_profile.exit.thread.i:                   ; preds = %9
  store i1 true, ptr @_running_profile.run, align 1
  br label %13

_running_profile.exit.i:                          ; preds = %9, %5
  %.b1.i.pr.i = load i1, ptr @_running_profile.run, align 1
  br i1 %.b1.i.pr.i, label %13, label %_send_profile.exit

13:                                               ; preds = %_running_profile.exit.i, %_running_profile.exit.thread.i
  %14 = load i64, ptr getelementptr inbounds nuw (i8, ptr @slurm_conf, i64 320), align 8
  %15 = and i64 %14, 262144
  %.not1.i = icmp eq i64 %15, 0
  br i1 %.not1.i, label %23, label %16

16:                                               ; preds = %13
  %17 = tail call i32 @slurm_get_log_level() #11
  %18 = icmp sgt i32 %17, 3
  br i1 %18, label %19, label %23

19:                                               ; preds = %16
  %20 = load ptr, ptr @local_energy, align 8
  %21 = getelementptr inbounds nuw i8, ptr %20, i64 24
  %22 = load i32, ptr %21, align 8
  tail call void (i32, ptr, ...) @slurm_log_var(i32 noundef 4, ptr noundef nonnull @.str.14, ptr noundef nonnull @plugin_type, ptr noundef nonnull @__func__._send_profile, i32 noundef %22) #11
  br label %23

23:                                               ; preds = %19, %16, %13
  %24 = load i32, ptr @dataset_id, align 4
  %25 = icmp slt i32 %24, 0
  br i1 %25, label %26, label %40

26:                                               ; preds = %23
  %27 = call i32 @acct_gather_profile_g_create_dataset(ptr noundef nonnull @.str.15, i64 noundef -1, ptr noundef nonnull %4) #11
  store i32 %27, ptr @dataset_id, align 4
  %28 = load i64, ptr getelementptr inbounds nuw (i8, ptr @slurm_conf, i64 320), align 8
  %29 = and i64 %28, 262144
  %.not2.i = icmp eq i64 %29, 0
  br i1 %.not2.i, label %35, label %30

30:                                               ; preds = %26
  %31 = call i32 @slurm_get_log_level() #11
  %32 = icmp sgt i32 %31, 3
  br i1 %32, label %33, label %thread-pre-split.i

33:                                               ; preds = %30
  %34 = load i32, ptr @dataset_id, align 4
  call void (i32, ptr, ...) @slurm_log_var(i32 noundef 4, ptr noundef nonnull @.str.16, ptr noundef nonnull @plugin_type, ptr noundef nonnull @__func__._send_profile, i32 noundef %34) #11
  br label %thread-pre-split.i

thread-pre-split.i:                               ; preds = %33, %30
  %.pr.i = load i32, ptr @dataset_id, align 4
  br label %35

35:                                               ; preds = %thread-pre-split.i, %26
  %36 = phi i32 [ %.pr.i, %thread-pre-split.i ], [ %27, %26 ]
  %37 = icmp eq i32 %36, -1
  br i1 %37, label %38, label %40

38:                                               ; preds = %35
  %39 = call i32 (ptr, ...) @slurm_error(ptr noundef nonnull @.str.17) #11
  br label %_send_profile.exit

40:                                               ; preds = %35, %23
  %41 = load ptr, ptr @local_energy, align 8
  %42 = getelementptr inbounds nuw i8, ptr %41, i64 24
  %43 = load i32, ptr %42, align 8
  %44 = zext i32 %43 to i64
  store i64 %44, ptr %3, align 8
  %45 = load i64, ptr getelementptr inbounds nuw (i8, ptr @slurm_conf, i64 320), align 8
  %46 = and i64 %45, 2097152
  %.not3.i = icmp eq i64 %46, 0
  br i1 %.not3.i, label %53, label %47

47:                                               ; preds = %40
  %48 = call i32 @slurm_get_log_level() #11
  %49 = icmp sgt i32 %48, 3
  %.pre4.i = load ptr, ptr @local_energy, align 8
  br i1 %49, label %50, label %53

50:                                               ; preds = %47
  %51 = getelementptr inbounds nuw i8, ptr %.pre4.i, i64 24
  %52 = load i32, ptr %51, align 8
  call void (i32, ptr, ...) @slurm_log_var(i32 noundef 4, ptr noundef nonnull @.str.18, ptr noundef nonnull @plugin_type, ptr noundef nonnull @__func__._send_profile, i32 noundef %52) #11
  %.pre.i = load ptr, ptr @local_energy, align 8
  br label %53

53:                                               ; preds = %50, %47, %40
  %54 = phi ptr [ %.pre4.i, %47 ], [ %.pre.i, %50 ], [ %41, %40 ]
  %55 = load i32, ptr @dataset_id, align 4
  %56 = getelementptr inbounds nuw i8, ptr %54, i64 40
  %57 = load i64, ptr %56, align 8
  %58 = call i32 @acct_gather_profile_g_add_sample_data(i32 noundef %55, ptr noundef nonnull %3, i64 noundef %57) #11
  br label %_send_profile.exit

_send_profile.exit:                               ; preds = %_running_profile.exit.i, %38, %53
  call void @llvm.lifetime.end.p0(i64 32, ptr nonnull %4) #11
  call void @llvm.lifetime.end.p0(i64 8, ptr nonnull %3) #11
  br label %62

59:                                               ; preds = %2
  store ptr %1, ptr @step, align 8
  br label %62

60:                                               ; preds = %2
  %61 = tail call i32 (ptr, ...) @slurm_error(ptr noundef nonnull @.str.3, i32 noundef %0) #11
  br label %62

62:                                               ; preds = %60, %59, %_send_profile.exit, %2
  %.0 = phi i32 [ -1, %60 ], [ 0, %59 ], [ 0, %_send_profile.exit ], [ 0, %2 ]
  ret i32 %.0
}